; Function Attrs: mustprogress uwtable
define void @_ZN5Ipopt16NLPBoundsRemoverC2ERNS_3NLPEb(ptr nocapture noundef nonnull align 8 dereferenceable(49) %0, ptr noundef nonnull align 8 dereferenceable(12) %1, i1 noundef zeroext %2) unnamed_addr #3 align 2 personality ptr @__gxx_personality_v0 {
  %4 = getelementptr inbounds i8, ptr %0, i64 8
  store i32 0, ptr %4, align 8
  store ptr getelementptr inbounds ({ [20 x ptr] }, ptr @_ZTVN5Ipopt16NLPBoundsRemoverE, i64 0, i32 0, i64 2), ptr %0, align 8
  %5 = getelementptr inbounds i8, ptr %0, i64 16
  store ptr null, ptr %5, align 8
  %6 = getelementptr inbounds i8, ptr %1, i64 8
  %7 = load i32, ptr %6, align 8
  %8 = add nsw i32 %7, 1
  store i32 %8, ptr %6, align 8
  %.pr.i = load ptr, ptr %5, align 8
  %.not.i.i.i = icmp eq ptr %.pr.i, null
  br i1 %.not.i.i.i, label %21, label %9

9:                                                ; preds = %3
  %10 = getelementptr inbounds i8, ptr %.pr.i, i64 8
  %11 = load i32, ptr %10, align 8
  %12 = add nsw i32 %11, -1
  store i32 %12, ptr %10, align 8
  %13 = load ptr, ptr %5, align 8
  %14 = getelementptr inbounds i8, ptr %13, i64 8
  %15 = load i32, ptr %14, align 8
  %16 = icmp eq i32 %15, 0
  br i1 %16, label %17, label %21

17:                                               ; preds = %9
  %18 = load ptr, ptr %13, align 8
  %19 = getelementptr inbounds i8, ptr %18, i64 8
  %20 = load ptr, ptr %19, align 8
  tail call void %20(ptr noundef nonnull align 8 dereferenceable(12) %13) #12
  br label %21

21:                                               ; preds = %17, %9, %3
  store ptr %1, ptr %5, align 8
  %22 = zext i1 %2 to i8
  %23 = getelementptr inbounds i8, ptr %0, i64 24
  %24 = getelementptr inbounds i8, ptr %0, i64 48
  tail call void @llvm.memset.p0.i64(ptr noundef nonnull align 8 dereferenceable(24) %23, i8 0, i64 24, i1 false)
  store i8 %22, ptr %24, align 8
  ret void
}